target datalayout = "e-m:e-p270:32:32-p271:32:32-p272:64:64-i64:64-i128:128-f80:128-n8:16:32:64-S128"
target triple = "x86_64-pc-linux-gnu"

%struct.timeval = type { i64, i64 }
%struct.__va_list_tag = type { i32, i32, ptr, ptr }
%struct._logentry = type { i32, i8, i16, i64, %struct.timeval, i32, [0 x %union.anon] }
%union.anon = type { i8 }
%struct._stritem = type { ptr, ptr, ptr, i32, i32, i32, i16, i16, i8, i8, [0 x %union.anon.12] }
%union.anon.12 = type { i64 }
%struct.logentry_deletion = type { i32, i32, i8, i8, [0 x i8] }

; Function Attrs: nounwind uwtable
define internal void @_logger_log_item_deleted(ptr noundef %0, ptr noundef %1, ptr noundef %2, ptr noundef %3) #0 {
  %5 = alloca ptr, align 8
  %6 = alloca ptr, align 8
  %7 = alloca ptr, align 8
  %8 = alloca ptr, align 8
  %9 = alloca ptr, align 8
  %10 = alloca i32, align 4
  %11 = alloca ptr, align 8
  store ptr %0, ptr %5, align 8, !tbaa !33
  store ptr %1, ptr %6, align 8, !tbaa !30
  store ptr %2, ptr %7, align 8, !tbaa !28
  store ptr %3, ptr %8, align 8, !tbaa !105
  call void @llvm.lifetime.start.p0(i64 8, ptr %9) #11
  %12 = load ptr, ptr %7, align 8, !tbaa !28
  store ptr %12, ptr %9, align 8, !tbaa !110
  call void @llvm.lifetime.start.p0(i64 4, ptr %10) #11
  %13 = load ptr, ptr %8, align 8, !tbaa !105
  %14 = getelementptr inbounds nuw %struct.__va_list_tag, ptr %13, i32 0, i32 0
  %15 = load i32, ptr %14, align 8
  %16 = icmp ule i32 %15, 40
  br i1 %16, label %17, label %22

17:                                               ; preds = %4
  %18 = getelementptr inbounds nuw %struct.__va_list_tag, ptr %13, i32 0, i32 3
  %19 = load ptr, ptr %18, align 8
  %20 = getelementptr i8, ptr %19, i32 %15
  %21 = add i32 %15, 8
  store i32 %21, ptr %14, align 8
  br label %26

22:                                               ; preds = %4
  %23 = getelementptr inbounds nuw %struct.__va_list_tag, ptr %13, i32 0, i32 2
  %24 = load ptr, ptr %23, align 8
  %25 = getelementptr i8, ptr %24, i32 8
  store ptr %25, ptr %23, align 8
  br label %26

26:                                               ; preds = %22, %17
  %27 = phi ptr [ %20, %17 ], [ %24, %22 ]
  %28 = load i32, ptr %27, align 4, !tbaa !11
  store i32 %28, ptr %10, align 4, !tbaa !11
  call void @llvm.lifetime.start.p0(i64 8, ptr %11) #11
  %29 = load ptr, ptr %5, align 8, !tbaa !33
  %30 = getelementptr inbounds nuw %struct._logentry, ptr %29, i32 0, i32 6
  %31 = getelementptr inbounds [0 x %union.anon], ptr %30, i64 0, i64 0
  store ptr %31, ptr %11, align 8, !tbaa !128
  %32 = load ptr, ptr %9, align 8, !tbaa !110
  %33 = getelementptr inbounds nuw %struct._stritem, ptr %32, i32 0, i32 9
  %34 = load i8, ptr %33, align 1, !tbaa !36
  %35 = load ptr, ptr %11, align 8, !tbaa !128
  %36 = getelementptr inbounds nuw %struct.logentry_deletion, ptr %35, i32 0, i32 2
  store i8 %34, ptr %36, align 4, !tbaa !36
  %37 = load i32, ptr %10, align 4, !tbaa !11
  %38 = load ptr, ptr %11, align 8, !tbaa !128
  %39 = getelementptr inbounds nuw %struct.logentry_deletion, ptr %38, i32 0, i32 1
  store i32 %37, ptr %39, align 4, !tbaa !11
  %40 = load ptr, ptr %9, align 8, !tbaa !110
  %41 = getelementptr inbounds nuw %struct._stritem, ptr %40, i32 0, i32 5
  %42 = load i32, ptr %41, align 8, !tbaa !11
  %43 = load ptr, ptr %11, align 8, !tbaa !128
  %44 = getelementptr inbounds nuw %struct.logentry_deletion, ptr %43, i32 0, i32 0
  store i32 %42, ptr %44, align 4, !tbaa !11
  %45 = load ptr, ptr %9, align 8, !tbaa !110
  %46 = getelementptr inbounds nuw %struct._stritem, ptr %45, i32 0, i32 8
  %47 = load i8, ptr %46, align 8, !tbaa !36
  %48 = zext i8 %47 to i32
  %49 = and i32 %48, -193
  %50 = trunc i32 %49 to i8
  %51 = load ptr, ptr %11, align 8, !tbaa !128
  %52 = getelementptr inbounds nuw %struct.logentry_deletion, ptr %51, i32 0, i32 3
  store i8 %50, ptr %52, align 1, !tbaa !36
  %53 = load ptr, ptr %11, align 8, !tbaa !128
  %54 = getelementptr inbounds nuw %struct.logentry_deletion, ptr %53, i32 0, i32 4
  %55 = getelementptr inbounds [0 x i8], ptr %54, i64 0, i64 0
  %56 = load ptr, ptr %9, align 8, !tbaa !110
  %57 = getelementptr inbounds nuw %struct._stritem, ptr %56, i32 0, i32 10
  %58 = load ptr, ptr %9, align 8, !tbaa !110
  %59 = getelementptr inbounds nuw %struct._stritem, ptr %58, i32 0, i32 7
  %60 = load i16, ptr %59, align 2, !tbaa !38
  %61 = zext i16 %60 to i32
  %62 = and i32 %61, 2
  %63 = icmp ne i32 %62, 0
  %64 = select i1 %63, i64 8, i64 0
  %65 = getelementptr inbounds nuw i8, ptr %57, i64 %64
  %66 = load ptr, ptr %9, align 8, !tbaa !110
  %67 = getelementptr inbounds nuw %struct._stritem, ptr %66, i32 0, i32 9
  %68 = load i8, ptr %67, align 1, !tbaa !36
  %69 = zext i8 %68 to i64
  call void @llvm.memcpy.p0.p0.i64(ptr align 2 %55, ptr align 1 %65, i64 %69, i1 false)
  %70 = load ptr, ptr %11, align 8, !tbaa !128
  %71 = getelementptr inbounds nuw %struct.logentry_deletion, ptr %70, i32 0, i32 2
  %72 = load i8, ptr %71, align 4, !tbaa !36
  %73 = zext i8 %72 to i64
  %74 = add i64 12, %73
  %75 = trunc i64 %74 to i32
  %76 = load ptr, ptr %5, align 8, !tbaa !33
  %77 = getelementptr inbounds nuw %struct._logentry, ptr %76, i32 0, i32 5
  store i32 %75, ptr %77, align 8, !tbaa !11
  call void @llvm.lifetime.end.p0(i64 8, ptr %11) #11
  call void @llvm.lifetime.end.p0(i64 4, ptr %10) #11
  call void @llvm.lifetime.end.p0(i64 8, ptr %9) #11
  ret void
}