; Function Attrs: mustprogress nofree norecurse nosync nounwind willreturn memory(read, argmem: readwrite, inaccessiblemem: none) uwtable
define internal void @_logger_log_item_deleted(ptr noundef writeonly captures(none) initializes((32, 46)) %0, ptr readnone captures(none) %1, ptr noundef readonly captures(none) %2, ptr noundef captures(none) %3) #15 {
  %5 = load i32, ptr %3, align 8
  %6 = icmp ult i32 %5, 41
  br i1 %6, label %7, label %13

7:                                                ; preds = %4
  %8 = getelementptr inbounds nuw i8, ptr %3, i64 16
  %9 = load ptr, ptr %8, align 8
  %10 = zext nneg i32 %5 to i64
  %11 = getelementptr i8, ptr %9, i64 %10
  %12 = add nuw nsw i32 %5, 8
  store i32 %12, ptr %3, align 8
  br label %17

13:                                               ; preds = %4
  %14 = getelementptr inbounds nuw i8, ptr %3, i64 8
  %15 = load ptr, ptr %14, align 8
  %16 = getelementptr i8, ptr %15, i64 8
  store ptr %16, ptr %14, align 8
  br label %17

17:                                               ; preds = %13, %7
  %18 = phi ptr [ %11, %7 ], [ %15, %13 ]
  %19 = load i32, ptr %18, align 4, !tbaa !9
  %20 = getelementptr inbounds nuw i8, ptr %0, i64 36
  %21 = getelementptr inbounds nuw i8, ptr %2, i64 41
  %22 = load i8, ptr %21, align 1, !tbaa !31
  %23 = getelementptr inbounds nuw i8, ptr %0, i64 44
  store i8 %22, ptr %23, align 4, !tbaa !31
  %24 = getelementptr inbounds nuw i8, ptr %0, i64 40
  store i32 %19, ptr %24, align 4, !tbaa !9
  %25 = getelementptr inbounds nuw i8, ptr %2, i64 32
  %26 = load i32, ptr %25, align 8, !tbaa !9
  store i32 %26, ptr %20, align 4, !tbaa !9
  %27 = getelementptr inbounds nuw i8, ptr %2, i64 40
  %28 = load i8, ptr %27, align 8, !tbaa !31
  %29 = and i8 %28, 63
  %30 = getelementptr inbounds nuw i8, ptr %0, i64 45
  store i8 %29, ptr %30, align 1, !tbaa !31
  %31 = getelementptr inbounds nuw i8, ptr %0, i64 46
  %32 = getelementptr inbounds nuw i8, ptr %2, i64 48
  %33 = getelementptr inbounds nuw i8, ptr %2, i64 38
  %34 = load i16, ptr %33, align 2, !tbaa !33
  %35 = shl i16 %34, 2
  %36 = and i16 %35, 8
  %37 = zext nneg i16 %36 to i64
  %38 = getelementptr inbounds nuw i8, ptr %32, i64 %37
  %39 = load i8, ptr %21, align 1, !tbaa !31
  %40 = zext i8 %39 to i64
  tail call void @llvm.memcpy.p0.p0.i64(ptr nonnull align 2 %31, ptr nonnull align 1 %38, i64 %40, i1 false)
  %41 = zext i8 %22 to i32
  %42 = add nuw nsw i32 %41, 12
  %43 = getelementptr inbounds nuw i8, ptr %0, i64 32
  store i32 %42, ptr %43, align 8, !tbaa !9
  ret void
}